target datalayout = "e-m:e-p270:32:32-p271:32:32-p272:64:64-i64:64-i128:128-f80:128-n8:16:32:64-S128"
target triple = "x86_64-pc-linux-gnu"

@.str.14 = private unnamed_addr constant [33 x i8] c"LIKE or GLOB pattern too complex\00", align 1
@.str.15 = private unnamed_addr constant [17 x i8] c" 000000000000\1000\00", align 1
@.str.16 = private unnamed_addr constant [17 x i8] c"\00\00\00\00\00\00\00\00\1E\0F\0F\0F\00\00\00\00\00", align 1
@.str.17 = private unnamed_addr constant [45 x i8] c"ESCAPE expression must be a single character\00", align 1

; Function Attrs: nounwind uwtable
define internal void @icuLikeFunc(ptr noundef %0, i32 noundef %1, ptr noundef %2) #0 {
  %4 = alloca ptr, align 8
  %5 = alloca i32, align 4
  %6 = alloca ptr, align 8
  %7 = alloca ptr, align 8
  %8 = alloca ptr, align 8
  %9 = alloca i32, align 4
  %10 = alloca i32, align 4
  %11 = alloca i32, align 4
  %12 = alloca ptr, align 8
  %13 = alloca i32, align 4
  %14 = alloca i8, align 1
  store ptr %0, ptr %4, align 8, !tbaa !22
  store i32 %1, ptr %5, align 4, !tbaa !11
  store ptr %2, ptr %6, align 8, !tbaa !24
  call void @llvm.lifetime.start.p0(i64 8, ptr %7) #3
  %15 = load ptr, ptr %6, align 8, !tbaa !24
  %16 = getelementptr inbounds ptr, ptr %15, i64 0
  %17 = load ptr, ptr %16, align 8, !tbaa !26
  %18 = call ptr @sqlite3_value_text(ptr noundef %17)
  store ptr %18, ptr %7, align 8, !tbaa !28
  call void @llvm.lifetime.start.p0(i64 8, ptr %8) #3
  %19 = load ptr, ptr %6, align 8, !tbaa !24
  %20 = getelementptr inbounds ptr, ptr %19, i64 1
  %21 = load ptr, ptr %20, align 8, !tbaa !26
  %22 = call ptr @sqlite3_value_text(ptr noundef %21)
  store ptr %22, ptr %8, align 8, !tbaa !28
  call void @llvm.lifetime.start.p0(i64 4, ptr %9) #3
  store i32 0, ptr %9, align 4, !tbaa !11
  %23 = load ptr, ptr %6, align 8, !tbaa !24
  %24 = getelementptr inbounds ptr, ptr %23, i64 0
  %25 = load ptr, ptr %24, align 8, !tbaa !26
  %26 = call i32 @sqlite3_value_bytes(ptr noundef %25)
  %27 = icmp sgt i32 %26, 50000
  br i1 %27, label %28, label %30

28:                                               ; preds = %3
  %29 = load ptr, ptr %4, align 8, !tbaa !22
  call void @sqlite3_result_error(ptr noundef %29, ptr noundef @.str.14, i32 noundef -1)
  store i32 1, ptr %10, align 4
  br label %194

30:                                               ; preds = %3
  %31 = load i32, ptr %5, align 4, !tbaa !11
  %32 = icmp eq i32 %31, 3
  br i1 %32, label %33, label %181

33:                                               ; preds = %30
  call void @llvm.lifetime.start.p0(i64 4, ptr %11) #3
  %34 = load ptr, ptr %6, align 8, !tbaa !24
  %35 = getelementptr inbounds ptr, ptr %34, i64 2
  %36 = load ptr, ptr %35, align 8, !tbaa !26
  %37 = call i32 @sqlite3_value_bytes(ptr noundef %36)
  store i32 %37, ptr %11, align 4, !tbaa !11
  call void @llvm.lifetime.start.p0(i64 8, ptr %12) #3
  %38 = load ptr, ptr %6, align 8, !tbaa !24
  %39 = getelementptr inbounds ptr, ptr %38, i64 2
  %40 = load ptr, ptr %39, align 8, !tbaa !26
  %41 = call ptr @sqlite3_value_text(ptr noundef %40)
  store ptr %41, ptr %12, align 8, !tbaa !28
  call void @llvm.lifetime.start.p0(i64 4, ptr %13) #3
  store i32 0, ptr %13, align 4, !tbaa !11
  %42 = load ptr, ptr %12, align 8, !tbaa !28
  %43 = icmp eq ptr %42, null
  br i1 %43, label %44, label %45

44:                                               ; preds = %33
  store i32 1, ptr %10, align 4
  br label %178

45:                                               ; preds = %33
  br label %46

46:                                               ; preds = %45
  %47 = load ptr, ptr %12, align 8, !tbaa !28
  %48 = load i32, ptr %13, align 4, !tbaa !11
  %49 = add nsw i32 %48, 1
  store i32 %49, ptr %13, align 4, !tbaa !11
  %50 = sext i32 %48 to i64
  %51 = getelementptr inbounds i8, ptr %47, i64 %50
  %52 = load i8, ptr %51, align 1, !tbaa !35
  %53 = zext i8 %52 to i32
  store i32 %53, ptr %9, align 4, !tbaa !11
  %54 = load i32, ptr %9, align 4, !tbaa !11
  %55 = and i32 %54, 128
  %56 = icmp eq i32 %55, 0
  br i1 %56, label %169, label %57

57:                                               ; preds = %46
  call void @llvm.lifetime.start.p0(i64 1, ptr %14) #3
  store i8 0, ptr %14, align 1, !tbaa !35
  %58 = load i32, ptr %13, align 4, !tbaa !11
  %59 = load i32, ptr %11, align 4, !tbaa !11
  %60 = icmp ne i32 %58, %59
  br i1 %60, label %61, label %167

61:                                               ; preds = %57
  %62 = load i32, ptr %9, align 4, !tbaa !11
  %63 = icmp sge i32 %62, 224
  br i1 %63, label %64, label %141

64:                                               ; preds = %61
  %65 = load i32, ptr %9, align 4, !tbaa !11
  %66 = icmp slt i32 %65, 240
  br i1 %66, label %67, label %89

67:                                               ; preds = %64
  %68 = load i32, ptr %9, align 4, !tbaa !11
  %69 = and i32 %68, 15
  store i32 %69, ptr %9, align 4, !tbaa !11
  %70 = sext i32 %69 to i64
  %71 = getelementptr inbounds [17 x i8], ptr @.str.15, i64 0, i64 %70
  %72 = load i8, ptr %71, align 1, !tbaa !35
  %73 = sext i8 %72 to i32
  %74 = load ptr, ptr %12, align 8, !tbaa !28
  %75 = load i32, ptr %13, align 4, !tbaa !11
  %76 = sext i32 %75 to i64
  %77 = getelementptr inbounds i8, ptr %74, i64 %76
  %78 = load i8, ptr %77, align 1, !tbaa !35
  store i8 %78, ptr %14, align 1, !tbaa !35
  %79 = zext i8 %78 to i32
  %80 = ashr i32 %79, 5
  %81 = shl i32 1, %80
  %82 = and i32 %73, %81
  %83 = icmp ne i32 %82, 0
  br i1 %83, label %84, label %167

84:                                               ; preds = %67
  %85 = load i8, ptr %14, align 1, !tbaa !35
  %86 = zext i8 %85 to i32
  %87 = and i32 %86, 63
  %88 = trunc i32 %87 to i8
  store i8 %88, ptr %14, align 1, !tbaa !35
  br i1 true, label %131, label %167

89:                                               ; preds = %64
  %90 = load i32, ptr %9, align 4, !tbaa !11
  %91 = sub nsw i32 %90, 240
  store i32 %91, ptr %9, align 4, !tbaa !11
  %92 = icmp sle i32 %91, 4
  br i1 %92, label %93, label %167

93:                                               ; preds = %89
  %94 = load ptr, ptr %12, align 8, !tbaa !28
  %95 = load i32, ptr %13, align 4, !tbaa !11
  %96 = sext i32 %95 to i64
  %97 = getelementptr inbounds i8, ptr %94, i64 %96
  %98 = load i8, ptr %97, align 1, !tbaa !35
  store i8 %98, ptr %14, align 1, !tbaa !35
  %99 = zext i8 %98 to i32
  %100 = ashr i32 %99, 4
  %101 = sext i32 %100 to i64
  %102 = getelementptr inbounds [17 x i8], ptr @.str.16, i64 0, i64 %101
  %103 = load i8, ptr %102, align 1, !tbaa !35
  %104 = sext i8 %103 to i32
  %105 = load i32, ptr %9, align 4, !tbaa !11
  %106 = shl i32 1, %105
  %107 = and i32 %104, %106
  %108 = icmp ne i32 %107, 0
  br i1 %108, label %109, label %167

109:                                              ; preds = %93
  %110 = load i32, ptr %9, align 4, !tbaa !11
  %111 = shl i32 %110, 6
  %112 = load i8, ptr %14, align 1, !tbaa !35
  %113 = zext i8 %112 to i32
  %114 = and i32 %113, 63
  %115 = or i32 %111, %114
  store i32 %115, ptr %9, align 4, !tbaa !11
  %116 = load i32, ptr %13, align 4, !tbaa !11
  %117 = add nsw i32 %116, 1
  store i32 %117, ptr %13, align 4, !tbaa !11
  %118 = load i32, ptr %11, align 4, !tbaa !11
  %119 = icmp ne i32 %117, %118
  br i1 %119, label %120, label %167

120:                                              ; preds = %109
  %121 = load ptr, ptr %12, align 8, !tbaa !28
  %122 = load i32, ptr %13, align 4, !tbaa !11
  %123 = sext i32 %122 to i64
  %124 = getelementptr inbounds i8, ptr %121, i64 %123
  %125 = load i8, ptr %124, align 1, !tbaa !35
  %126 = zext i8 %125 to i32
  %127 = sub nsw i32 %126, 128
  %128 = trunc i32 %127 to i8
  store i8 %128, ptr %14, align 1, !tbaa !35
  %129 = zext i8 %128 to i32
  %130 = icmp sle i32 %129, 63
  br i1 %130, label %131, label %167

131:                                              ; preds = %120, %84
  %132 = load i32, ptr %9, align 4, !tbaa !11
  %133 = shl i32 %132, 6
  %134 = load i8, ptr %14, align 1, !tbaa !35
  %135 = zext i8 %134 to i32
  %136 = or i32 %133, %135
  store i32 %136, ptr %9, align 4, !tbaa !11
  %137 = load i32, ptr %13, align 4, !tbaa !11
  %138 = add nsw i32 %137, 1
  store i32 %138, ptr %13, align 4, !tbaa !11
  %139 = load i32, ptr %11, align 4, !tbaa !11
  %140 = icmp ne i32 %138, %139
  br i1 %140, label %147, label %167

141:                                              ; preds = %61
  %142 = load i32, ptr %9, align 4, !tbaa !11
  %143 = icmp sge i32 %142, 194
  br i1 %143, label %144, label %167

144:                                              ; preds = %141
  %145 = load i32, ptr %9, align 4, !tbaa !11
  %146 = and i32 %145, 31
  store i32 %146, ptr %9, align 4, !tbaa !11
  br i1 true, label %147, label %167

147:                                              ; preds = %144, %131
  %148 = load ptr, ptr %12, align 8, !tbaa !28
  %149 = load i32, ptr %13, align 4, !tbaa !11
  %150 = sext i32 %149 to i64
  %151 = getelementptr inbounds i8, ptr %148, i64 %150
  %152 = load i8, ptr %151, align 1, !tbaa !35
  %153 = zext i8 %152 to i32
  %154 = sub nsw i32 %153, 128
  %155 = trunc i32 %154 to i8
  store i8 %155, ptr %14, align 1, !tbaa !35
  %156 = zext i8 %155 to i32
  %157 = icmp sle i32 %156, 63
  br i1 %157, label %158, label %167

158:                                              ; preds = %147
  %159 = load i32, ptr %9, align 4, !tbaa !11
  %160 = shl i32 %159, 6
  %161 = load i8, ptr %14, align 1, !tbaa !35
  %162 = zext i8 %161 to i32
  %163 = or i32 %160, %162
  store i32 %163, ptr %9, align 4, !tbaa !11
  %164 = load i32, ptr %13, align 4, !tbaa !11
  %165 = add nsw i32 %164, 1
  store i32 %165, ptr %13, align 4, !tbaa !11
  br i1 true, label %166, label %167

166:                                              ; preds = %158
  br label %168

167:                                              ; preds = %158, %147, %144, %141, %131, %120, %109, %93, %89, %84, %67, %57
  store i32 -1, ptr %9, align 4, !tbaa !11
  br label %168

168:                                              ; preds = %167, %166
  call void @llvm.lifetime.end.p0(i64 1, ptr %14) #3
  br label %169

169:                                              ; preds = %168, %46
  br label %170

170:                                              ; preds = %169
  br label %171

171:                                              ; preds = %170
  %172 = load i32, ptr %13, align 4, !tbaa !11
  %173 = load i32, ptr %11, align 4, !tbaa !11
  %174 = icmp ne i32 %172, %173
  br i1 %174, label %175, label %177

175:                                              ; preds = %171
  %176 = load ptr, ptr %4, align 8, !tbaa !22
  call void @sqlite3_result_error(ptr noundef %176, ptr noundef @.str.17, i32 noundef -1)
  store i32 1, ptr %10, align 4
  br label %178

177:                                              ; preds = %171
  store i32 0, ptr %10, align 4
  br label %178

178:                                              ; preds = %177, %175, %44
  call void @llvm.lifetime.end.p0(i64 4, ptr %13) #3
  call void @llvm.lifetime.end.p0(i64 8, ptr %12) #3
  call void @llvm.lifetime.end.p0(i64 4, ptr %11) #3
  %179 = load i32, ptr %10, align 4
  switch i32 %179, label %194 [
    i32 0, label %180
  ]

180:                                              ; preds = %178
  br label %181

181:                                              ; preds = %180, %30
  %182 = load ptr, ptr %7, align 8, !tbaa !28
  %183 = icmp ne ptr %182, null
  br i1 %183, label %184, label %193

184:                                              ; preds = %181
  %185 = load ptr, ptr %8, align 8, !tbaa !28
  %186 = icmp ne ptr %185, null
  br i1 %186, label %187, label %193

187:                                              ; preds = %184
  %188 = load ptr, ptr %4, align 8, !tbaa !22
  %189 = load ptr, ptr %7, align 8, !tbaa !28
  %190 = load ptr, ptr %8, align 8, !tbaa !28
  %191 = load i32, ptr %9, align 4, !tbaa !11
  %192 = call i32 @icuLikeCompare(ptr noundef %189, ptr noundef %190, i32 noundef %191)
  call void @sqlite3_result_int(ptr noundef %188, i32 noundef %192)
  br label %193

193:                                              ; preds = %187, %184, %181
  store i32 0, ptr %10, align 4
  br label %194

194:                                              ; preds = %193, %178, %28
  call void @llvm.lifetime.end.p0(i64 4, ptr %9) #3
  call void @llvm.lifetime.end.p0(i64 8, ptr %8) #3
  call void @llvm.lifetime.end.p0(i64 8, ptr %7) #3
  %195 = load i32, ptr %10, align 4
  switch i32 %195, label %197 [
    i32 0, label %196
    i32 1, label %196
  ]

196:                                              ; preds = %194, %194
  ret void

197:                                              ; preds = %194
  unreachable
}