; Function Attrs: nounwind uwtable
define internal void @icuLikeFunc(ptr noundef %0, i32 noundef %1, ptr noundef readonly captures(none) %2) #0 {
  %4 = load ptr, ptr %2, align 8, !tbaa !18
  %5 = tail call ptr @sqlite3_value_text(ptr noundef %4) #3
  %6 = getelementptr inbounds nuw i8, ptr %2, i64 8
  %7 = load ptr, ptr %6, align 8, !tbaa !18
  %8 = tail call ptr @sqlite3_value_text(ptr noundef %7) #3
  %9 = load ptr, ptr %2, align 8, !tbaa !18
  %10 = tail call i32 @sqlite3_value_bytes(ptr noundef %9) #3
  %11 = icmp sgt i32 %10, 50000
  br i1 %11, label %12, label %13

12:                                               ; preds = %3
  tail call void @sqlite3_result_error(ptr noundef %0, ptr noundef nonnull @.str.14, i32 noundef -1) #3
  br label %.thread

13:                                               ; preds = %3
  %14 = icmp eq i32 %1, 3
  br i1 %14, label %15, label %.thread74

15:                                               ; preds = %13
  %16 = getelementptr inbounds nuw i8, ptr %2, i64 16
  %17 = load ptr, ptr %16, align 8, !tbaa !18
  %18 = tail call i32 @sqlite3_value_bytes(ptr noundef %17) #3
  %19 = load ptr, ptr %16, align 8, !tbaa !18
  %20 = tail call ptr @sqlite3_value_text(ptr noundef %19) #3
  %21 = icmp eq ptr %20, null
  br i1 %21, label %.thread, label %22

22:                                               ; preds = %15
  %23 = load i8, ptr %20, align 1, !tbaa !20
  %24 = zext i8 %23 to i32
  %25 = icmp sgt i8 %23, -1
  br i1 %25, label %87, label %26

26:                                               ; preds = %22
  %.not = icmp eq i32 %18, 1
  br i1 %.not, label %87, label %27

27:                                               ; preds = %26
  %28 = icmp samesign ugt i8 %23, -33
  br i1 %28, label %29, label %72

29:                                               ; preds = %27
  %30 = icmp samesign ult i8 %23, -16
  br i1 %30, label %31, label %45

31:                                               ; preds = %29
  %32 = and i32 %24, 15
  %33 = zext nneg i32 %32 to i64
  %34 = getelementptr inbounds nuw [17 x i8], ptr @.str.15, i64 0, i64 %33
  %35 = load i8, ptr %34, align 1, !tbaa !20
  %36 = zext i8 %35 to i32
  %37 = getelementptr inbounds nuw i8, ptr %20, i64 1
  %38 = load i8, ptr %37, align 1, !tbaa !20
  %39 = lshr i8 %38, 5
  %40 = zext nneg i8 %39 to i32
  %41 = shl nuw nsw i32 1, %40
  %42 = and i32 %41, %36
  %.not69 = icmp eq i32 %42, 0
  br i1 %.not69, label %87, label %43

43:                                               ; preds = %31
  %44 = and i8 %38, 63
  br label %68

45:                                               ; preds = %29
  %46 = add nsw i32 %24, -240
  %47 = icmp samesign ult i8 %23, -11
  br i1 %47, label %48, label %87

48:                                               ; preds = %45
  %49 = getelementptr inbounds nuw i8, ptr %20, i64 1
  %50 = load i8, ptr %49, align 1, !tbaa !20
  %51 = zext i8 %50 to i32
  %52 = lshr i32 %51, 4
  %53 = zext nneg i32 %52 to i64
  %54 = getelementptr inbounds nuw [17 x i8], ptr @.str.16, i64 0, i64 %53
  %55 = load i8, ptr %54, align 1, !tbaa !20
  %56 = sext i8 %55 to i32
  %57 = shl nuw nsw i32 1, %46
  %58 = and i32 %57, %56
  %.not67 = icmp eq i32 %58, 0
  br i1 %.not67, label %87, label %59

59:                                               ; preds = %48
  %.not68 = icmp eq i32 %18, 2
  br i1 %.not68, label %87, label %60

60:                                               ; preds = %59
  %61 = shl nuw nsw i32 %46, 6
  %62 = and i32 %51, 63
  %63 = or disjoint i32 %62, %61
  %64 = getelementptr inbounds nuw i8, ptr %20, i64 2
  %65 = load i8, ptr %64, align 1, !tbaa !20
  %66 = xor i8 %65, -128
  %67 = icmp ult i8 %66, 64
  br i1 %67, label %68, label %87

68:                                               ; preds = %43, %60
  %.253 = phi i32 [ %32, %43 ], [ %63, %60 ]
  %.1 = phi i32 [ 2, %43 ], [ 3, %60 ]
  %.0 = phi i8 [ %44, %43 ], [ %66, %60 ]
  %69 = shl nuw nsw i32 %.253, 6
  %70 = zext nneg i8 %.0 to i32
  %71 = or disjoint i32 %69, %70
  %.not70 = icmp eq i32 %.1, %18
  br i1 %.not70, label %.thread74, label %76

72:                                               ; preds = %27
  %73 = icmp samesign ugt i8 %23, -63
  br i1 %73, label %74, label %87

74:                                               ; preds = %72
  %75 = and i32 %24, 31
  br label %76

76:                                               ; preds = %74, %68
  %.354 = phi i32 [ %71, %68 ], [ %75, %74 ]
  %.2 = phi i32 [ %.1, %68 ], [ 1, %74 ]
  %77 = zext nneg i32 %.2 to i64
  %78 = getelementptr inbounds nuw i8, ptr %20, i64 %77
  %79 = load i8, ptr %78, align 1, !tbaa !20
  %80 = xor i8 %79, -128
  %81 = icmp ult i8 %80, 64
  br i1 %81, label %82, label %87

82:                                               ; preds = %76
  %83 = zext nneg i8 %80 to i32
  %84 = shl nuw nsw i32 %.354, 6
  %85 = or disjoint i32 %84, %83
  %86 = add nuw nsw i32 %.2, 1
  br label %87

87:                                               ; preds = %82, %76, %72, %60, %59, %48, %45, %31, %26, %22
  %.5 = phi i32 [ %24, %22 ], [ %85, %82 ], [ -1, %76 ], [ -1, %72 ], [ -1, %60 ], [ -1, %59 ], [ -1, %48 ], [ -1, %45 ], [ -1, %31 ], [ -1, %26 ]
  %.4 = phi i32 [ 1, %22 ], [ %86, %82 ], [ %.2, %76 ], [ 1, %72 ], [ 2, %60 ], [ 2, %59 ], [ 1, %48 ], [ 1, %45 ], [ 1, %31 ], [ 1, %26 ]
  %.not71 = icmp eq i32 %.4, %18
  br i1 %.not71, label %.thread74, label %88

88:                                               ; preds = %87
  tail call void @sqlite3_result_error(ptr noundef %0, ptr noundef nonnull @.str.17, i32 noundef -1) #3
  br label %.thread

.thread74:                                        ; preds = %68, %87, %13
  %.051 = phi i32 [ 0, %13 ], [ %.5, %87 ], [ -1, %68 ]
  %89 = icmp ne ptr %5, null
  %90 = icmp ne ptr %8, null
  %or.cond = select i1 %89, i1 %90, i1 false
  br i1 %or.cond, label %91, label %.thread

91:                                               ; preds = %.thread74
  %92 = tail call fastcc i32 @icuLikeCompare(ptr noundef %5, ptr noundef %8, i32 noundef %.051)
  tail call void @sqlite3_result_int(ptr noundef %0, i32 noundef %92) #3
  br label %.thread

.thread:                                          ; preds = %15, %88, %.thread74, %91, %12
  ret void
}